; Function Attrs: mustprogress nofree norecurse nosync nounwind willreturn memory(argmem: write) uwtable
define dso_local void @InitSharedLatch(ptr noundef writeonly captures(none) initializes((0, 9), (12, 16)) %0) local_unnamed_addr #6 {
  store i32 0, ptr %0, align 4
  %2 = getelementptr inbounds nuw i8, ptr %0, i64 4
  store i32 0, ptr %2, align 4
  %3 = getelementptr inbounds nuw i8, ptr %0, i64 12
  store i32 0, ptr %3, align 4
  %4 = getelementptr inbounds nuw i8, ptr %0, i64 8
  store i8 1, ptr %4, align 4
  ret void
}